; Function Attrs: mustprogress uwtable
define internal fastcc void @_ZN4leanL13get_real_nameERKNS_4nameE(ptr dead_on_unwind noalias nonnull writable writeonly align 8 captures(none) initializes((0, 8)) %0, ptr noundef nonnull align 8 dereferenceable(8) %1) unnamed_addr #0 personality ptr @__gxx_personality_v0 {
  %3 = alloca %"class.lean::optional", align 8
  call void @llvm.lifetime.start.p0(i64 16, ptr nonnull %3) #18
  call void @_ZN4lean18is_unsafe_rec_nameERKNS_4nameE(ptr dead_on_unwind nonnull writable sret(%"class.lean::optional") align 8 %3, ptr noundef nonnull align 8 dereferenceable(8) %1)
  %4 = load i8, ptr %3, align 8, !tbaa !23, !range !11, !noundef !12
  %5 = trunc nuw i8 %4 to i1
  br i1 %5, label %6, label %16

6:                                                ; preds = %2
  %7 = getelementptr inbounds nuw i8, ptr %3, i64 8
  %8 = load ptr, ptr %7, align 8, !tbaa !13
  store ptr %8, ptr %0, align 8, !tbaa !13
  %9 = ptrtoint ptr %8 to i64
  %10 = and i64 %9, 1
  %.not.i.i.i = icmp eq i64 %10, 0
  br i1 %.not.i.i.i, label %11, label %_ZN4lean4nameC2ERKS0_.exit

11:                                               ; preds = %6
  %.val.i.i.i.i = load i32, ptr %8, align 4, !tbaa !25
  %12 = icmp sgt i32 %.val.i.i.i.i, 0
  br i1 %12, label %_ZN4lean4nameC2ERKS0_.exit.sink.split, label %13, !prof !28

13:                                               ; preds = %11
  %.not.i.i.i.i = icmp eq i32 %.val.i.i.i.i, 0
  br i1 %.not.i.i.i.i, label %_ZN4lean4nameC2ERKS0_.exit, label %.invoke

14:                                               ; preds = %.invoke
  %15 = landingpad { ptr, i32 }
          cleanup
  call void @_ZN4lean8optionalINS_4nameEED2Ev(ptr noundef nonnull align 8 dereferenceable(16) %3) #18
  call void @llvm.lifetime.end.p0(i64 16, ptr nonnull %3) #18
  resume { ptr, i32 } %15

16:                                               ; preds = %2
  %17 = load ptr, ptr %1, align 8, !tbaa !13
  store ptr %17, ptr %0, align 8, !tbaa !13
  %18 = ptrtoint ptr %17 to i64
  %19 = and i64 %18, 1
  %.not.i.i.i3 = icmp eq i64 %19, 0
  br i1 %.not.i.i.i3, label %20, label %_ZN4lean4nameC2ERKS0_.exit

20:                                               ; preds = %16
  %.val.i.i.i.i4 = load i32, ptr %17, align 4, !tbaa !25
  %21 = icmp sgt i32 %.val.i.i.i.i4, 0
  br i1 %21, label %_ZN4lean4nameC2ERKS0_.exit.sink.split, label %22, !prof !28

22:                                               ; preds = %20
  %.not.i.i.i.i5 = icmp eq i32 %.val.i.i.i.i4, 0
  br i1 %.not.i.i.i.i5, label %_ZN4lean4nameC2ERKS0_.exit, label %.invoke

.invoke:                                          ; preds = %13, %22
  %23 = phi ptr [ %17, %22 ], [ %8, %13 ]
  invoke void @lean_inc_ref_cold(ptr noundef nonnull %23)
          to label %_ZN4lean4nameC2ERKS0_.exit unwind label %14

_ZN4lean4nameC2ERKS0_.exit.sink.split:            ; preds = %20, %11
  %.val.i.i.i.i4.sink = phi i32 [ %.val.i.i.i.i, %11 ], [ %.val.i.i.i.i4, %20 ]
  %.sink10 = phi ptr [ %8, %11 ], [ %17, %20 ]
  %24 = add nuw nsw i32 %.val.i.i.i.i4.sink, 1
  store i32 %24, ptr %.sink10, align 4, !tbaa !25
  br label %_ZN4lean4nameC2ERKS0_.exit

_ZN4lean4nameC2ERKS0_.exit:                       ; preds = %_ZN4lean4nameC2ERKS0_.exit.sink.split, %.invoke, %22, %16, %13, %6
  %25 = load i8, ptr %3, align 8, !tbaa !23, !range !11, !noundef !12
  %26 = trunc nuw i8 %25 to i1
  br i1 %26, label %27, label %_ZN4lean8optionalINS_4nameEED2Ev.exit

27:                                               ; preds = %_ZN4lean4nameC2ERKS0_.exit
  %28 = getelementptr inbounds nuw i8, ptr %3, i64 8
  %29 = load ptr, ptr %28, align 8, !tbaa !13
  %30 = ptrtoint ptr %29 to i64
  %31 = and i64 %30, 1
  %.not.i.i.i8 = icmp eq i64 %31, 0
  br i1 %.not.i.i.i8, label %32, label %_ZN4lean8optionalINS_4nameEED2Ev.exit

32:                                               ; preds = %27
  %33 = load i32, ptr %29, align 4, !tbaa !25
  %34 = icmp sgt i32 %33, 1
  br i1 %34, label %35, label %37, !prof !28

35:                                               ; preds = %32
  %36 = add nsw i32 %33, -1
  store i32 %36, ptr %29, align 4, !tbaa !25
  br label %_ZN4lean8optionalINS_4nameEED2Ev.exit

37:                                               ; preds = %32
  %.not.i.i.i.i9 = icmp eq i32 %33, 0
  br i1 %.not.i.i.i.i9, label %_ZN4lean8optionalINS_4nameEED2Ev.exit, label %38

38:                                               ; preds = %37
  invoke void @lean_dec_ref_cold(ptr noundef nonnull %29)
          to label %_ZN4lean8optionalINS_4nameEED2Ev.exit unwind label %39

39:                                               ; preds = %38
  %40 = landingpad { ptr, i32 }
          catch ptr null
  %41 = extractvalue { ptr, i32 } %40, 0
  call void @__clang_call_terminate(ptr %41) #20
  unreachable

_ZN4lean8optionalINS_4nameEED2Ev.exit:            ; preds = %_ZN4lean4nameC2ERKS0_.exit, %27, %35, %37, %38
  call void @llvm.lifetime.end.p0(i64 16, ptr nonnull %3) #18
  ret void
}